; Function Attrs: mustprogress nounwind uwtable
define void @_ZN8facebook5velox6memory13MmapAllocator9SizeClassD2Ev(ptr nocapture noundef nonnull readonly align 8 dereferenceable(192) %this) unnamed_addr #1 align 2 personality ptr @__gxx_personality_v0 {
entry:
  %address_ = getelementptr inbounds i8, ptr %this, i64 72
  %0 = load ptr, ptr %address_, align 8
  %byteSize_ = getelementptr inbounds i8, ptr %this, i64 16
  %1 = load i64, ptr %byteSize_, align 8
  %call = tail call i32 @munmap(ptr noundef %0, i64 noundef %1) #24
  %pageMapped_ = getelementptr inbounds i8, ptr %this, i64 144
  %2 = load ptr, ptr %pageMapped_, align 8
  %tobool.not.i.i.i = icmp eq ptr %2, null
  br i1 %tobool.not.i.i.i, label %_ZNSt6vectorImSaImEED2Ev.exit, label %if.then.i.i.i

if.then.i.i.i:                                    ; preds = %entry
  tail call void @_ZdlPv(ptr noundef nonnull %2) #29
  br label %_ZNSt6vectorImSaImEED2Ev.exit

_ZNSt6vectorImSaImEED2Ev.exit:                    ; preds = %entry, %if.then.i.i.i
  %pageAllocated_ = getelementptr inbounds i8, ptr %this, i64 120
  %3 = load ptr, ptr %pageAllocated_, align 8
  %tobool.not.i.i.i1 = icmp eq ptr %3, null
  br i1 %tobool.not.i.i.i1, label %_ZNSt6vectorImSaImEED2Ev.exit3, label %if.then.i.i.i2

if.then.i.i.i2:                                   ; preds = %_ZNSt6vectorImSaImEED2Ev.exit
  tail call void @_ZdlPv(ptr noundef nonnull %3) #29
  br label %_ZNSt6vectorImSaImEED2Ev.exit3

_ZNSt6vectorImSaImEED2Ev.exit3:                   ; preds = %_ZNSt6vectorImSaImEED2Ev.exit, %if.then.i.i.i2
  %mappedFreeLookup_ = getelementptr inbounds i8, ptr %this, i64 96
  %4 = load ptr, ptr %mappedFreeLookup_, align 8
  %tobool.not.i.i.i4 = icmp eq ptr %4, null
  br i1 %tobool.not.i.i.i4, label %_ZNSt6vectorImSaImEED2Ev.exit6, label %if.then.i.i.i5

if.then.i.i.i5:                                   ; preds = %_ZNSt6vectorImSaImEED2Ev.exit3
  tail call void @_ZdlPv(ptr noundef nonnull %4) #29
  br label %_ZNSt6vectorImSaImEED2Ev.exit6

_ZNSt6vectorImSaImEED2Ev.exit6:                   ; preds = %_ZNSt6vectorImSaImEED2Ev.exit3, %if.then.i.i.i5
  ret void
}